(dp1
S'TargetID'
p2
S'INT'
p3
sS'TitleID'
p4
S'INT'
p5
sS'TimestampCreated'
p6
S'DATETIME'
p7
sS'Source'
p8
S'VARCHAR(512)'
p9
sS'TimestampTaken'
p10
S'DATETIME'
p11
sS'TimestampModified'
p12
S'DATETIME'
p13
sS'id'
p14
S'INT AUTO_INCREMENT NOT NULL'
p15
s.