(dp1
S'plate_center_dec'
p2
S'DOUBLE'
p3
sS'number_of_targets'
p4
S'INT'
p5
sS'plate_center_ra'
p6
S'DOUBLE'
p7
sS'number_of_good_targets'
p8
S'INT'
p9
sS'faintest_target'
p10
S'DOUBLE'
p11
sS'field_name'
p12
S'VARCHAR(100)'
p13
sS'id'
p14
S'INT AUTO_INCREMENT NOT NULL'
p15
s.